target datalayout = "e-m:e-p270:32:32-p271:32:32-p272:64:64-i64:64-i128:128-f80:128-n8:16:32:64-S128"
target triple = "x86_64-pc-linux-gnu"

%struct.Abc_Frame_t_ = type { ptr, ptr, ptr, ptr, ptr, ptr, ptr, ptr, ptr, ptr, i32, i32, i32, i32, i32, ptr, float, float, i32, i32, ptr, ptr, ptr, double, double, ptr, ptr, ptr, ptr, ptr, ptr, ptr, ptr, ptr, ptr, ptr, ptr, float, ptr, i32, ptr, ptr, ptr, ptr, ptr, i32, i32, i32, i32, i32, i32, ptr, ptr, ptr, ptr, ptr, ptr, i32, i32, ptr, ptr, ptr, ptr, ptr, ptr, ptr, ptr, ptr, ptr, ptr, ptr, ptr, ptr, ptr, ptr, ptr, ptr, ptr, ptr, ptr, ptr, ptr, ptr, ptr, ptr, ptr, ptr, ptr, ptr }

@.str.18 = private unnamed_addr constant [62 x i8] c"\09-v     : toggle printing verbose information [default = %s]\0A\00", align 1
@.str.19 = private unnamed_addr constant [4 x i8] c"yes\00", align 1
@.str.20 = private unnamed_addr constant [3 x i8] c"no\00", align 1
@.str.21 = private unnamed_addr constant [35 x i8] c"\09-h     : print the command usage\0A\00", align 1
@.str.56 = private unnamed_addr constant [4 x i8] c"mvh\00", align 1
@.str.57 = private unnamed_addr constant [49 x i8] c"Abc_CommandMerge(): There is no current design.\0A\00", align 1
@.str.58 = private unnamed_addr constant [22 x i8] c"usage: |merge [-mvh]\0A\00", align 1
@.str.59 = private unnamed_addr constant [56 x i8] c"\09         performs distance-1 merge using cube hashing\0A\00", align 1

; Function Attrs: inlinehint nounwind uwtable
define internal ptr @Pla_AbcGetMan(ptr noundef %0) #2 {
  %2 = alloca ptr, align 8
  store ptr %0, ptr %2, align 8, !tbaa !3
  %3 = load ptr, ptr %2, align 8, !tbaa !3
  %4 = getelementptr inbounds nuw %struct.Abc_Frame_t_, ptr %3, i32 0, i32 76
  %5 = load ptr, ptr %4, align 8, !tbaa !34
  ret ptr %5
}

; Function Attrs: nounwind uwtable
define internal i32 @Abc_CommandMerge(ptr noundef %0, i32 noundef %1, ptr noundef %2) #0 {
  %4 = alloca i32, align 4
  %5 = alloca ptr, align 8
  %6 = alloca i32, align 4
  %7 = alloca ptr, align 8
  %8 = alloca ptr, align 8
  %9 = alloca i32, align 4
  %10 = alloca i32, align 4
  %11 = alloca i32, align 4
  %12 = alloca i32, align 4
  store ptr %0, ptr %5, align 8, !tbaa !3
  store i32 %1, ptr %6, align 4, !tbaa !8
  store ptr %2, ptr %7, align 8, !tbaa !10
  call void @llvm.lifetime.start.p0(i64 8, ptr %8) #8
  %13 = load ptr, ptr %5, align 8, !tbaa !3
  %14 = call ptr @Pla_AbcGetMan(ptr noundef %13)
  store ptr %14, ptr %8, align 8, !tbaa !12
  call void @llvm.lifetime.start.p0(i64 4, ptr %9) #8
  call void @llvm.lifetime.start.p0(i64 4, ptr %10) #8
  store i32 0, ptr %10, align 4, !tbaa !8
  call void @llvm.lifetime.start.p0(i64 4, ptr %11) #8
  store i32 0, ptr %11, align 4, !tbaa !8
  call void (...) @Extra_UtilGetoptReset()
  br label %15

15:                                               ; preds = %30, %3
  %16 = load i32, ptr %6, align 4, !tbaa !8
  %17 = load ptr, ptr %7, align 8, !tbaa !10
  %18 = call i32 @Extra_UtilGetopt(i32 noundef %16, ptr noundef %17, ptr noundef @.str.56)
  store i32 %18, ptr %9, align 4, !tbaa !8
  %19 = icmp ne i32 %18, -1
  br i1 %19, label %20, label %31

20:                                               ; preds = %15
  %21 = load i32, ptr %9, align 4, !tbaa !8
  switch i32 %21, label %29 [
    i32 109, label %22
    i32 118, label %25
    i32 104, label %28
  ]

22:                                               ; preds = %20
  %23 = load i32, ptr %10, align 4, !tbaa !8
  %24 = xor i32 %23, 1
  store i32 %24, ptr %10, align 4, !tbaa !8
  br label %30

25:                                               ; preds = %20
  %26 = load i32, ptr %11, align 4, !tbaa !8
  %27 = xor i32 %26, 1
  store i32 %27, ptr %11, align 4, !tbaa !8
  br label %30

28:                                               ; preds = %20
  br label %38

29:                                               ; preds = %20
  br label %38

30:                                               ; preds = %25, %22
  br label %15, !llvm.loop !32

31:                                               ; preds = %15
  %32 = load ptr, ptr %8, align 8, !tbaa !12
  %33 = icmp eq ptr %32, null
  br i1 %33, label %34, label %35

34:                                               ; preds = %31
  call void (i32, ptr, ...) @Abc_Print(i32 noundef 1, ptr noundef @.str.57)
  store i32 0, ptr %4, align 4
  store i32 1, ptr %12, align 4
  br label %42

35:                                               ; preds = %31
  %36 = load ptr, ptr %8, align 8, !tbaa !12
  %37 = call i32 @Pla_ManDist1Merge(ptr noundef %36)
  store i32 0, ptr %4, align 4
  store i32 1, ptr %12, align 4
  br label %42

38:                                               ; preds = %29, %28
  call void (i32, ptr, ...) @Abc_Print(i32 noundef -2, ptr noundef @.str.58)
  call void (i32, ptr, ...) @Abc_Print(i32 noundef -2, ptr noundef @.str.59)
  %39 = load i32, ptr %11, align 4, !tbaa !8
  %40 = icmp ne i32 %39, 0
  %41 = select i1 %40, ptr @.str.19, ptr @.str.20
  call void (i32, ptr, ...) @Abc_Print(i32 noundef -2, ptr noundef @.str.18, ptr noundef %41)
  call void (i32, ptr, ...) @Abc_Print(i32 noundef -2, ptr noundef @.str.21)
  store i32 1, ptr %4, align 4
  store i32 1, ptr %12, align 4
  br label %42

42:                                               ; preds = %38, %35, %34
  call void @llvm.lifetime.end.p0(i64 4, ptr %11) #8
  call void @llvm.lifetime.end.p0(i64 4, ptr %10) #8
  call void @llvm.lifetime.end.p0(i64 4, ptr %9) #8
  call void @llvm.lifetime.end.p0(i64 8, ptr %8) #8
  %43 = load i32, ptr %4, align 4
  ret i32 %43
}