; Function Attrs: nounwind uwtable
define internal range(i32 0, 2) i32 @Abc_CommandMerge(ptr noundef readonly captures(none) %0, i32 noundef %1, ptr noundef %2) #0 {
  %4 = getelementptr i8, ptr %0, i64 544
  %.val = load ptr, ptr %4, align 8, !tbaa !12
  tail call void (...) @Extra_UtilGetoptReset() #10
  br label %.outer

.outer:                                           ; preds = %7, %3
  %.0.ph = phi i32 [ %8, %7 ], [ 0, %3 ]
  br label %5

5:                                                ; preds = %.outer, %5
  %6 = tail call i32 @Extra_UtilGetopt(i32 noundef %1, ptr noundef %2, ptr noundef nonnull @.str.56) #10
  switch i32 %6, label %14 [
    i32 -1, label %9
    i32 109, label %5
    i32 118, label %7
  ], !llvm.loop !49

7:                                                ; preds = %5
  %8 = xor i32 %.0.ph, 1
  br label %.outer, !llvm.loop !49

9:                                                ; preds = %5
  %10 = icmp eq ptr %.val, null
  br i1 %10, label %11, label %12

11:                                               ; preds = %9
  tail call void (i32, ptr, ...) @Abc_Print(i32 noundef 1, ptr noundef nonnull @.str.57)
  br label %16

12:                                               ; preds = %9
  %13 = tail call i32 @Pla_ManDist1Merge(ptr noundef nonnull %.val) #10
  br label %16

14:                                               ; preds = %5
  tail call void (i32, ptr, ...) @Abc_Print(i32 noundef -2, ptr noundef nonnull @.str.58)
  tail call void (i32, ptr, ...) @Abc_Print(i32 noundef -2, ptr noundef nonnull @.str.59)
  %.not14 = icmp eq i32 %.0.ph, 0
  %15 = select i1 %.not14, ptr @.str.20, ptr @.str.19
  tail call void (i32, ptr, ...) @Abc_Print(i32 noundef -2, ptr noundef nonnull @.str.18, ptr noundef nonnull %15)
  tail call void (i32, ptr, ...) @Abc_Print(i32 noundef -2, ptr noundef nonnull @.str.21)
  br label %16

16:                                               ; preds = %14, %12, %11
  %.011 = phi i32 [ 1, %14 ], [ 0, %11 ], [ 0, %12 ]
  ret i32 %.011
}